; Function Attrs: nounwind uwtable
define dso_local range(i64 0, 2) i64 @pg_indexam_has_property(ptr noundef captures(none) %0) local_unnamed_addr #0 {
  %2 = getelementptr inbounds nuw i8, ptr %0, i64 32
  %3 = load i64, ptr %2, align 8
  %4 = trunc i64 %3 to i32
  %5 = getelementptr inbounds nuw i8, ptr %0, i64 48
  %6 = load i64, ptr %5, align 8
  %7 = inttoptr i64 %6 to ptr
  %8 = tail call ptr @pg_detoast_datum_packed(ptr noundef %7) #3
  %9 = tail call ptr @text_to_cstring(ptr noundef %8) #3
  %10 = tail call fastcc i64 @indexam_property(ptr noundef %0, ptr noundef %9, i32 noundef %4, i32 noundef 0, i32 noundef 0)
  ret i64 %10
}